; Function Attrs: mustprogress nounwind uwtable
define dso_local void @_ZN14cmFileLockPool16PopFunctionScopeEv(ptr noundef nonnull align 8 captures(none) dereferenceable(72) %0) local_unnamed_addr #1 align 2 personality ptr @__gxx_personality_v0 {
  %2 = getelementptr inbounds nuw i8, ptr %0, i64 8
  %3 = load ptr, ptr %2, align 8
  %4 = getelementptr inbounds i8, ptr %3, i64 -24
  store ptr %4, ptr %2, align 8
  %5 = load ptr, ptr %4, align 8
  %6 = getelementptr inbounds i8, ptr %3, i64 -16
  %7 = load ptr, ptr %6, align 8
  %.not4.i.i.i.i.i.i.i.i = icmp eq ptr %5, %7
  br i1 %.not4.i.i.i.i.i.i.i.i, label %_ZSt8_DestroyIP10cmFileLockS0_EvT_S2_RSaIT0_E.exit.i.i.i.i.i, label %.lr.ph.i.i.i.i.i.i.i.i

.lr.ph.i.i.i.i.i.i.i.i:                           ; preds = %1, %.lr.ph.i.i.i.i.i.i.i.i
  %.05.i.i.i.i.i.i.i.i = phi ptr [ %8, %.lr.ph.i.i.i.i.i.i.i.i ], [ %5, %1 ]
  tail call void @_ZN10cmFileLockD1Ev(ptr noundef nonnull align 8 dereferenceable(40) %.05.i.i.i.i.i.i.i.i) #13
  %8 = getelementptr inbounds nuw i8, ptr %.05.i.i.i.i.i.i.i.i, i64 40
  %.not.i.i.i.i.i.i.i.i = icmp eq ptr %8, %7
  br i1 %.not.i.i.i.i.i.i.i.i, label %_ZSt8_DestroyIP10cmFileLockS0_EvT_S2_RSaIT0_E.exitthread-pre-split.i.i.i.i.i, label %.lr.ph.i.i.i.i.i.i.i.i, !llvm.loop !5

_ZSt8_DestroyIP10cmFileLockS0_EvT_S2_RSaIT0_E.exitthread-pre-split.i.i.i.i.i: ; preds = %.lr.ph.i.i.i.i.i.i.i.i
  %.pr.i.i.i.i.i = load ptr, ptr %4, align 8
  br label %_ZSt8_DestroyIP10cmFileLockS0_EvT_S2_RSaIT0_E.exit.i.i.i.i.i

_ZSt8_DestroyIP10cmFileLockS0_EvT_S2_RSaIT0_E.exit.i.i.i.i.i: ; preds = %_ZSt8_DestroyIP10cmFileLockS0_EvT_S2_RSaIT0_E.exitthread-pre-split.i.i.i.i.i, %1
  %9 = phi ptr [ %.pr.i.i.i.i.i, %_ZSt8_DestroyIP10cmFileLockS0_EvT_S2_RSaIT0_E.exitthread-pre-split.i.i.i.i.i ], [ %5, %1 ]
  %.not.i.i.i.i.i.i.i = icmp eq ptr %9, null
  br i1 %.not.i.i.i.i.i.i.i, label %_ZNSt6vectorIN14cmFileLockPool9ScopePoolESaIS1_EE8pop_backEv.exit, label %10

10:                                               ; preds = %_ZSt8_DestroyIP10cmFileLockS0_EvT_S2_RSaIT0_E.exit.i.i.i.i.i
  tail call void @_ZdlPv(ptr noundef nonnull %9) #14
  br label %_ZNSt6vectorIN14cmFileLockPool9ScopePoolESaIS1_EE8pop_backEv.exit

_ZNSt6vectorIN14cmFileLockPool9ScopePoolESaIS1_EE8pop_backEv.exit: ; preds = %_ZSt8_DestroyIP10cmFileLockS0_EvT_S2_RSaIT0_E.exit.i.i.i.i.i, %10
  ret void
}